; Function Attrs: nounwind uwtable
define internal fastcc ptr @find_var(ptr nocapture noundef readonly %tok) unnamed_addr #0 {
entry:
  %loc = getelementptr inbounds %struct.Token, ptr %tok, i64 0, i32 4
  %len = getelementptr inbounds %struct.Token, ptr %tok, i64 0, i32 5
  br label %for.cond

for.cond:                                         ; preds = %for.body, %entry
  %sc.0.in = phi ptr [ @scope, %entry ], [ %sc.0, %for.body ]
  %sc.0 = load ptr, ptr %sc.0.in, align 8
  %tobool.not = icmp eq ptr %sc.0, null
  br i1 %tobool.not, label %return, label %for.body

for.body:                                         ; preds = %for.cond
  %vars = getelementptr inbounds %struct.Scope, ptr %sc.0, i64 0, i32 1
  %0 = load ptr, ptr %loc, align 16
  %1 = load i32, ptr %len, align 8
  %call = tail call ptr @hashmap_get2(ptr noundef nonnull %vars, ptr noundef %0, i32 noundef %1) #13
  %tobool1.not = icmp eq ptr %call, null
  br i1 %tobool1.not, label %for.cond, label %return, !llvm.loop !14

return:                                           ; preds = %for.cond, %for.body
  %retval.0 = phi ptr [ %call, %for.body ], [ null, %for.cond ]
  ret ptr %retval.0
}